; Function Attrs: mustprogress uwtable
define hidden noundef zeroext i1 @_ZN4cvc58internal6theory7strings12RegExpEntail23testConstStringInRegExpERNS0_6StringENS0_12NodeTemplateILb0EEE(ptr noundef nonnull align 8 dereferenceable(24) %0, ptr noundef readonly captures(none) %1) local_unnamed_addr #3 align 2 personality ptr @__gxx_personality_v0 {
  %3 = alloca %"class.cvc5::internal::NodeTemplate", align 8
  %4 = alloca %"class.cvc5::internal::NodeTemplate", align 8
  %5 = alloca %"class.cvc5::internal::NodeTemplate.83", align 8
  %6 = load ptr, ptr %1, align 8, !tbaa !27
  %7 = getelementptr inbounds nuw i8, ptr %6, i64 8
  %8 = load i64, ptr %7, align 8
  %9 = trunc i64 %8 to i32
  %10 = and i32 %9, 1023
  switch i32 %10, label %75 [
    i32 351, label %11
    i32 348, label %11
    i32 347, label %11
  ]

11:                                               ; preds = %2, %2, %2
  call void @llvm.lifetime.start.p0(i64 8, ptr nonnull %3) #22
  store ptr %6, ptr %3, align 8, !tbaa !9
  %12 = load i64, ptr %6, align 8
  %13 = lshr i64 %12, 40
  %14 = trunc nuw nsw i64 %13 to i32
  %15 = and i32 %14, 1048575
  %16 = icmp samesign ult i32 %15, 1048574
  br i1 %16, label %17, label %22, !prof !12

17:                                               ; preds = %11
  %18 = add i64 %12, 1099511627776
  %19 = and i64 %18, 1152920405095219200
  %20 = and i64 %12, -1152920405095219201
  %21 = or disjoint i64 %19, %20
  store i64 %21, ptr %6, align 8
  br label %_ZN4cvc58internal12NodeTemplateILb1EEC2ERKNS1_ILb0EEE.exit

22:                                               ; preds = %11
  %23 = icmp eq i32 %15, 1048574
  br i1 %23, label %24, label %_ZN4cvc58internal12NodeTemplateILb1EEC2ERKNS1_ILb0EEE.exit, !prof !11

24:                                               ; preds = %22
  %25 = or i64 %12, 1152920405095219200
  store i64 %25, ptr %6, align 8
  tail call void @_ZN4cvc58internal4expr9NodeValue20markRefCountMaxedOutEv(ptr noundef nonnull align 8 dereferenceable(24) %6)
  br label %_ZN4cvc58internal12NodeTemplateILb1EEC2ERKNS1_ILb0EEE.exit

_ZN4cvc58internal12NodeTemplateILb1EEC2ERKNS1_ILb0EEE.exit: ; preds = %17, %22, %24
  %26 = invoke noundef zeroext i1 @_ZN4cvc58internal6theory7strings10RegExpEval11canEvaluateERKNS0_12NodeTemplateILb1EEE(ptr noundef nonnull align 8 dereferenceable(8) %3)
          to label %27 unwind label %71

27:                                               ; preds = %_ZN4cvc58internal12NodeTemplateILb1EEC2ERKNS1_ILb0EEE.exit
  %28 = load ptr, ptr %3, align 8, !tbaa !9
  %29 = load i64, ptr %28, align 8
  %30 = and i64 %29, 1152920405095219200
  %.not.i.i = icmp eq i64 %30, 1152920405095219200
  br i1 %.not.i.i, label %_ZN4cvc58internal12NodeTemplateILb1EED2Ev.exit, label %31, !prof !11

31:                                               ; preds = %27
  %32 = add i64 %29, 1152920405095219200
  %33 = and i64 %32, 1152920405095219200
  %34 = and i64 %29, -1152920405095219201
  %35 = or disjoint i64 %33, %34
  store i64 %35, ptr %28, align 8
  %36 = icmp eq i64 %33, 0
  br i1 %36, label %37, label %_ZN4cvc58internal12NodeTemplateILb1EED2Ev.exit, !prof !11

37:                                               ; preds = %31
  invoke void @_ZN4cvc58internal4expr9NodeValue15markForDeletionEv(ptr noundef nonnull align 8 dereferenceable(24) %28)
          to label %_ZN4cvc58internal12NodeTemplateILb1EED2Ev.exit unwind label %38

38:                                               ; preds = %37
  %39 = landingpad { ptr, i32 }
          catch ptr null
  %40 = extractvalue { ptr, i32 } %39, 0
  call void @__clang_call_terminate(ptr %40) #24
  unreachable

_ZN4cvc58internal12NodeTemplateILb1EED2Ev.exit:   ; preds = %27, %31, %37
  call void @llvm.lifetime.end.p0(i64 8, ptr nonnull %3) #22
  %.pre = load ptr, ptr %1, align 8, !tbaa !27
  br i1 %26, label %41, label %75

41:                                               ; preds = %_ZN4cvc58internal12NodeTemplateILb1EED2Ev.exit
  call void @llvm.lifetime.start.p0(i64 8, ptr nonnull %4) #22
  store ptr %.pre, ptr %4, align 8, !tbaa !9
  %42 = load i64, ptr %.pre, align 8
  %43 = lshr i64 %42, 40
  %44 = trunc nuw nsw i64 %43 to i32
  %45 = and i32 %44, 1048575
  %46 = icmp samesign ult i32 %45, 1048574
  br i1 %46, label %47, label %52, !prof !12

47:                                               ; preds = %41
  %48 = add i64 %42, 1099511627776
  %49 = and i64 %48, 1152920405095219200
  %50 = and i64 %42, -1152920405095219201
  %51 = or disjoint i64 %49, %50
  store i64 %51, ptr %.pre, align 8
  br label %_ZN4cvc58internal12NodeTemplateILb1EEC2ERKNS1_ILb0EEE.exit13

52:                                               ; preds = %41
  %53 = icmp eq i32 %45, 1048574
  br i1 %53, label %54, label %_ZN4cvc58internal12NodeTemplateILb1EEC2ERKNS1_ILb0EEE.exit13, !prof !11

54:                                               ; preds = %52
  %55 = or i64 %42, 1152920405095219200
  store i64 %55, ptr %.pre, align 8
  call void @_ZN4cvc58internal4expr9NodeValue20markRefCountMaxedOutEv(ptr noundef nonnull align 8 dereferenceable(24) %.pre)
  br label %_ZN4cvc58internal12NodeTemplateILb1EEC2ERKNS1_ILb0EEE.exit13

_ZN4cvc58internal12NodeTemplateILb1EEC2ERKNS1_ILb0EEE.exit13: ; preds = %47, %52, %54
  %56 = invoke noundef zeroext i1 @_ZN4cvc58internal6theory7strings10RegExpEval8evaluateERNS0_6StringERKNS0_12NodeTemplateILb1EEE(ptr noundef nonnull align 8 dereferenceable(24) %0, ptr noundef nonnull align 8 dereferenceable(8) %4)
          to label %57 unwind label %73

57:                                               ; preds = %_ZN4cvc58internal12NodeTemplateILb1EEC2ERKNS1_ILb0EEE.exit13
  %58 = load ptr, ptr %4, align 8, !tbaa !9
  %59 = load i64, ptr %58, align 8
  %60 = and i64 %59, 1152920405095219200
  %.not.i.i14 = icmp eq i64 %60, 1152920405095219200
  br i1 %.not.i.i14, label %_ZN4cvc58internal12NodeTemplateILb1EED2Ev.exit15, label %61, !prof !11

61:                                               ; preds = %57
  %62 = add i64 %59, 1152920405095219200
  %63 = and i64 %62, 1152920405095219200
  %64 = and i64 %59, -1152920405095219201
  %65 = or disjoint i64 %63, %64
  store i64 %65, ptr %58, align 8
  %66 = icmp eq i64 %63, 0
  br i1 %66, label %67, label %_ZN4cvc58internal12NodeTemplateILb1EED2Ev.exit15, !prof !11

67:                                               ; preds = %61
  invoke void @_ZN4cvc58internal4expr9NodeValue15markForDeletionEv(ptr noundef nonnull align 8 dereferenceable(24) %58)
          to label %_ZN4cvc58internal12NodeTemplateILb1EED2Ev.exit15 unwind label %68

68:                                               ; preds = %67
  %69 = landingpad { ptr, i32 }
          catch ptr null
  %70 = extractvalue { ptr, i32 } %69, 0
  call void @__clang_call_terminate(ptr %70) #24
  unreachable

_ZN4cvc58internal12NodeTemplateILb1EED2Ev.exit15: ; preds = %57, %61, %67
  call void @llvm.lifetime.end.p0(i64 8, ptr nonnull %4) #22
  br label %78

71:                                               ; preds = %_ZN4cvc58internal12NodeTemplateILb1EEC2ERKNS1_ILb0EEE.exit
  %72 = landingpad { ptr, i32 }
          cleanup
  call void @_ZN4cvc58internal12NodeTemplateILb1EED2Ev(ptr noundef nonnull align 8 dereferenceable(8) %3) #22
  call void @llvm.lifetime.end.p0(i64 8, ptr nonnull %3) #22
  br label %79

73:                                               ; preds = %_ZN4cvc58internal12NodeTemplateILb1EEC2ERKNS1_ILb0EEE.exit13
  %74 = landingpad { ptr, i32 }
          cleanup
  call void @_ZN4cvc58internal12NodeTemplateILb1EED2Ev(ptr noundef nonnull align 8 dereferenceable(8) %4) #22
  call void @llvm.lifetime.end.p0(i64 8, ptr nonnull %4) #22
  br label %79

75:                                               ; preds = %2, %_ZN4cvc58internal12NodeTemplateILb1EED2Ev.exit
  %76 = phi ptr [ %6, %2 ], [ %.pre, %_ZN4cvc58internal12NodeTemplateILb1EED2Ev.exit ]
  store ptr %76, ptr %5, align 8, !tbaa !27
  %77 = call noundef zeroext i1 @_ZN4cvc58internal6theory7strings12RegExpEntail31testConstStringInRegExpInternalERNS0_6StringEjNS0_12NodeTemplateILb0EEE(ptr noundef nonnull align 8 dereferenceable(24) %0, i32 noundef 0, ptr noundef nonnull %5)
  br label %78

78:                                               ; preds = %75, %_ZN4cvc58internal12NodeTemplateILb1EED2Ev.exit15
  %.011 = phi i1 [ %56, %_ZN4cvc58internal12NodeTemplateILb1EED2Ev.exit15 ], [ %77, %75 ]
  ret i1 %.011

79:                                               ; preds = %73, %71
  %.pn = phi { ptr, i32 } [ %74, %73 ], [ %72, %71 ]
  resume { ptr, i32 } %.pn
}